(lp1
(dp2
S'pollutants'
p3
(dp4
S'ozone'
p5
F13.47407668
sS'temperature'
p6
I3
sS'humidity'
p7
I64
ssS'metadata'
p8
(dp9
S'latitude'
p10
F47.373120999999998
sS'timestamp'
p11
cdatetime
datetime
p12
(S'\x07\xde\x02\x0e\x17;4\x00\x00\x00'
tRp13
sS'longitude'
p14
F8.522356666666667
ssa(dp15
g3
(dp16
g5
F12.38729745
sg6
I2
sg7
I63
ssg8
(dp17
g10
F47.408812166666664
sg11
g12
(S'\x07\xde\x02\x0e\x17;2\x00\x00\x00'
tRp18
sg14
F8.5488176666666664
ssa(dp19
g3
(dp20
g5
F32.745229819999999
sg6
I11
sg7
I52
ssg8
(dp21
g10
F47.391299500000002
sg11
g12
(S'\x07\xde\x02\x0e\x17;%\x00\x00\x00'
tRp22
sg14
F8.5217318333333338
ssa(dp23
g3
(dp24
g5
F13.653074889999999
sg6
I3
sg7
I63
ssg8
(dp25
g10
F47.373801
sg11
g12
(S'\x07\xde\x02\x0e\x17:4\x00\x00\x00'
tRp26
sg14
F8.5200953333333338
ssa(dp27
g3
(dp28
g5
F12.38729745
sg6
I2
sg7
I64
ssg8
(dp29
g10
F47.40930516666667
sg11
g12
(S'\x07\xde\x02\x0e\x17:2\x00\x00\x00'
tRp30
sg14
F8.5465143333333327
ssa(dp31
g3
(dp32
g5
F12.38729745
sg6
I2
sg7
I63
ssg8
(dp33
g10
F47.410840499999999
sg11
g12
(S'\x07\xde\x02\x0e\x1791\x00\x00\x00'
tRp34
sg14
F8.5457468333333342
ssa(dp35
g3
(dp36
g5
F13.83207311
sg6
I3
sg7
I63
ssg8
(dp37
g10
F47.374563666666667
sg11
g12
(S'\x07\xde\x02\x0e\x179\x16\x00\x00\x00'
tRp38
sg14
F8.5210578333333338
ssa(dp39
g3
(dp40
g5
F13.742573999999999
sg6
I3
sg7
I63
ssg8
(dp41
g10
F47.374215333333332
sg11
g12
(S'\x07\xde\x02\x0e\x178\x16\x00\x00\x00'
tRp42
sg14
F8.5252614999999992
ssa(dp43
g3
(dp44
g5
F14.190069530000001
sg6
I3
sg7
I63
ssg8
(dp45
g10
F47.373371666666664
sg11
g12
(S'\x07\xde\x02\x0e\x177\x16\x00\x00\x00'
tRp46
sg14
F8.5285751666666663
ssa(dp47
g3
(dp48
g5
F14.36906774
sg6
I3
sg7
I63
ssg8
(dp49
g10
F47.373754499999997
sg11
g12
(S'\x07\xde\x02\x0e\x176\x16\x00\x00\x00'
tRp50
sg14
F8.5302605000000007
ssa(dp51
g3
(dp52
g5
F12.3396667
sg6
I2
sg7
I64
ssg8
(dp53
g10
F47.406439166666665
sg11
g12
(S'\x07\xde\x02\x0e\x176\x13\x00\x00\x00'
tRp54
sg14
F8.5482875000000007
ssa(dp55
g3
(dp56
g5
F14.727064159999999
sg6
I3
sg7
I65
ssg8
(dp57
g10
F47.373619833333336
sg11
g12
(S'\x07\xde\x02\x0e\x1754\x00\x00\x00'
tRp58
sg14
F8.5317771666666662
ssa(dp59
g3
(dp60
g5
F14.727064159999999
sg6
I3
sg7
I65
ssg8
(dp61
g10
F47.375426833333336
sg11
g12
(S'\x07\xde\x02\x0e\x175\x16\x00\x00\x00'
tRp62
sg14
F8.533259833333334
ssa(dp63
g3
(dp64
g5
F12.33725958
sg6
I3
sg7
I65
ssg8
(dp65
g10
F47.403945
sg11
g12
(S'\x07\xde\x02\x0e\x175\x13\x00\x00\x00'
tRp66
sg14
F8.5481706666666675
ssa(dp67
g3
(dp68
g5
F14.995561479999999
sg6
I3
sg7
I65
ssg8
(dp69
g10
F47.37622566666667
sg11
g12
(S'\x07\xde\x02\x0e\x1744\x00\x00\x00'
tRp70
sg14
F8.5341848333333328
ssa(dp71
g3
(dp72
g5
F12.33725958
sg6
I3
sg7
I65
ssg8
(dp73
g10
F47.401592833333332
sg11
g12
(S'\x07\xde\x02\x0e\x174\x13\x00\x00\x00'
tRp74
sg14
F8.5454834999999996
ssa(dp75
g3
(dp76
g5
F14.995561479999999
sg6
I3
sg7
I65
ssg8
(dp77
g10
F47.375939500000001
sg11
g12
(S'\x07\xde\x02\x0e\x1739\x00\x00\x00'
tRp78
sg14
F8.5364535000000004
ssa(dp79
g3
(dp80
g5
F12.288666620000001
sg6
I3
sg7
I65
ssg8
(dp81
g10
F47.400246166666669
sg11
g12
(S'\x07\xde\x02\x0e\x1731\x00\x00\x00'
tRp82
sg14
F8.5435320000000008
ssa(dp83
g3
(dp84
g5
F15.89055254
sg6
I3
sg7
I65
ssg8
(dp85
g10
F47.376511666666666
sg11
g12
(S'\x07\xde\x02\x0e\x1724\x00\x00\x00'
tRp86
sg14
F8.5377683333333341
ssa(dp87
g3
(dp88
g5
F12.24007366
sg6
I3
sg7
I66
ssg8
(dp89
g10
F47.398004999999998
sg11
g12
(S'\x07\xde\x02\x0e\x1721\x00\x00\x00'
tRp90
sg14
F8.5420575000000003
ssa(dp91
g3
(dp92
g5
F16.60654538
sg6
I3
sg7
I64
ssg8
(dp93
g10
F47.377300666666663
sg11
g12
(S'\x07\xde\x02\x0e\x172\x16\x00\x00\x00'
tRp94
sg14
F8.5390921666666664
ssa(dp95
g3
(dp96
g5
F12.24007366
sg6
I3
sg7
I65
ssg8
(dp97
g10
F47.39676
sg11
g12
(S'\x07\xde\x02\x0e\x1711\x00\x00\x00'
tRp98
sg14
F8.5409398333333328
ssa(dp99
g3
(dp100
g5
F13.943890850000001
sg6
I2
sg7
I67
ssg8
(dp101
g10
F47.391400166666664
sg11
g12
(S'\x07\xde\x02\x0e\x171 \x00\x00\x00'
tRp102
sg14
F8.5233314999999994
ssa(dp103
g3
(dp104
g5
F17.680534649999998
sg6
I3
sg7
I65
ssg8
(dp105
g10
F47.377085000000001
sg11
g12
(S'\x07\xde\x02\x0e\x171\x16\x00\x00\x00'
tRp106
sg14
F8.5403723333333339
ssa(dp107
g3
(dp108
g5
F12.24007366
sg6
I3
sg7
I65
ssg8
(dp109
g10
F47.395689166666664
sg11
g12
(S'\x07\xde\x02\x0e\x171\x13\x00\x00\x00'
tRp110
sg14
F8.540203833333333
ssa(dp111
g3
(dp112
g5
F17.680534649999998
sg6
I3
sg7
I65
ssg8
(dp113
g10
F47.377026499999999
sg11
g12
(S'\x07\xde\x02\x0e\x1704\x00\x00\x00'
tRp114
sg14
F8.541872333333334
ssa(dp115
g3
(dp116
g5
F12.24007366
sg6
I3
sg7
I65
ssg8
(dp117
g10
F47.394263500000001
sg11
g12
(S'\x07\xde\x02\x0e\x1701\x00\x00\x00'
tRp118
sg14
F8.5394271666666661
ssa(dp119
g3
(dp120
g5
F12.24007366
sg6
I3
sg7
I65
ssg8
(dp121
g10
F47.39215466666667
sg11
g12
(S'\x07\xde\x02\x0e\x170\x13\x00\x00\x00'
tRp122
sg14
F8.5388601666666659
ssa(dp123
g3
(dp124
g5
F18.844023029999999
sg6
I3
sg7
I66
ssg8
(dp125
g10
F47.376799333333331
sg11
g12
(S'\x07\xde\x02\x0e\x17/4\x00\x00\x00'
tRp126
sg14
F8.5438594999999999
ssa(dp127
g3
(dp128
g5
F12.24007366
sg6
I3
sg7
I66
ssg8
(dp129
g10
F47.390469833333334
sg11
g12
(S'\x07\xde\x02\x0e\x17/\x13\x00\x00\x00'
tRp130
sg14
F8.5389673333333338
ssa(dp131
g3
(dp132
g5
F20.902502460000001
sg6
I3
sg7
I67
ssg8
(dp133
g10
F47.37426383333333
sg11
g12
(S'\x07\xde\x02\x0e\x17.4\x00\x00\x00'
tRp134
sg14
F8.5462491666666658
ssa(dp135
g3
(dp136
g5
F12.288666620000001
sg6
I3
sg7
I66
ssg8
(dp137
g10
F47.388091666666668
sg11
g12
(S'\x07\xde\x02\x0e\x17.1\x00\x00\x00'
tRp138
sg14
F8.539276666666666
ssa(dp139
g3
(dp140
g5
F24.064449199999999
sg6
I1
sg7
I61
ssg8
(dp141
g10
F47.371873666666666
sg11
g12
(S'\x07\xde\x02\x0e\x17.1\x00\x00\x00'
tRp142
sg14
F8.5235883333333327
ssa(dp143
g3
(dp144
g5
F22.871482790000002
sg6
I3
sg7
I65
ssg8
(dp145
g10
F47.372759666666667
sg11
g12
(S'\x07\xde\x02\x0e\x17.\x16\x00\x00\x00'
tRp146
sg14
F8.5474818333333324
ssa(dp147
g3
(dp148
g5
F22.871482790000002
sg6
I3
sg7
I65
ssg8
(dp149
g10
F47.371543166666669
sg11
g12
(S'\x07\xde\x02\x0e\x17-4\x00\x00\x00'
tRp150
sg14
F8.5478323333333339
ssa(dp151
g3
(dp152
g5
F12.288666620000001
sg6
I3
sg7
I65
ssg8
(dp153
g10
F47.384383333333332
sg11
g12
(S'\x07\xde\x02\x0e\x17-1\x00\x00\x00'
tRp154
sg14
F8.5400698333333338
ssa(dp155
g3
(dp156
g5
F26.540946129999998
sg6
I3
sg7
I65
ssg8
(dp157
g10
F47.370679500000001
sg11
g12
(S'\x07\xde\x02\x0e\x17-\x16\x00\x00\x00'
tRp158
sg14
F8.5488949999999999
ssa(dp159
g3
(dp160
g5
F26.540946129999998
sg6
I3
sg7
I65
ssg8
(dp161
g10
F47.370324833333335
sg11
g12
(S'\x07\xde\x02\x0e\x17,4\x00\x00\x00'
tRp162
sg14
F8.5503421666666668
ssa(dp163
g3
(dp164
g5
F12.288666620000001
sg6
I3
sg7
I66
ssg8
(dp165
g10
F47.381876333333331
sg11
g12
(S'\x07\xde\x02\x0e\x17,1\x00\x00\x00'
tRp166
sg14
F8.5418090000000007
ssa(dp167
g3
(dp168
g5
F28.957421979999999
sg6
I3
sg7
I65
ssg8
(dp169
g10
F47.369564166666663
sg11
g12
(S'\x07\xde\x02\x0e\x17,\x17\x00\x00\x00'
tRp170
sg14
F8.5540299999999991
ssa(dp171
g3
(dp172
g5
F12.288666620000001
sg6
I3
sg7
I66
ssg8
(dp173
g10
F47.379852833333331
sg11
g12
(S'\x07\xde\x02\x0e\x17,\x13\x00\x00\x00'
tRp174
sg14
F8.5428245
ssa(dp175
g3
(dp176
g5
F28.957421979999999
sg6
I3
sg7
I65
ssg8
(dp177
g10
F47.369303666666667
sg11
g12
(S'\x07\xde\x02\x0e\x17+4\x00\x00\x00'
tRp178
sg14
F8.5561948333333326
ssa(dp179
g3
(dp180
g5
F13.943890850000001
sg6
I2
sg7
I67
ssg8
(dp181
g10
F47.38927566666667
sg11
g12
(S'\x07\xde\x02\x0e\x17+\x1e\x00\x00\x00'
tRp182
sg14
F8.5219911666666661
ssa(dp183
g3
(dp184
g5
F29.58391572
sg6
I3
sg7
I65
ssg8
(dp185
g10
F47.368592999999997
sg11
g12
(S'\x07\xde\x02\x0e\x17+\x16\x00\x00\x00'
tRp186
sg14
F8.5586739999999999
ssa(dp187
g3
(dp188
g5
F14.16282831
sg6
I2
sg7
I66
ssg8
(dp189
g10
F47.38702683333333
sg11
g12
(S'\x07\xde\x02\x0e\x17+\x00\x00\x00\x00'
tRp190
sg14
F8.5204883333333328
ssa(dp191
g3
(dp192
g5
F29.58391572
sg6
I3
sg7
I65
ssg8
(dp193
g10
F47.368048166666668
sg11
g12
(S'\x07\xde\x02\x0e\x17*4\x00\x00\x00'
tRp194
sg14
F8.5604053333333336
ssa(dp195
g3
(dp196
g5
F12.24007366
sg6
I3
sg7
I65
ssg8
(dp197
g10
F47.378276499999998
sg11
g12
(S'\x07\xde\x02\x0e\x17*1\x00\x00\x00'
tRp198
sg14
F8.541577666666667
ssa(dp199
g3
(dp200
g5
F24.086166209999998
sg6
I1
sg7
I61
ssg8
(dp201
g10
F47.370728
sg11
g12
(S'\x07\xde\x02\x0e\x17*1\x00\x00\x00'
tRp202
sg14
F8.5226021666666671
ssa(dp203
g3
(dp204
g5
F24.086166209999998
sg6
I1
sg7
I61
ssg8
(dp205
g10
F47.369695499999999
sg11
g12
(S'\x07\xde\x02\x0e\x17*\x14\x00\x00\x00'
tRp206
sg14
F8.5200071666666659
ssa(dp207
g3
(dp208
g5
F14.16282831
sg6
I2
sg7
I66
ssg8
(dp209
g10
F47.387508833333335
sg11
g12
(S'\x07\xde\x02\x0e\x17*\x00\x00\x00\x00'
tRp210
sg14
F8.5191274999999997
ssa(dp211
g3
(dp212
g5
F29.136420189999999
sg6
I3
sg7
I64
ssg8
(dp213
g10
F47.366148666666668
sg11
g12
(S'\x07\xde\x02\x0e\x17)4\x00\x00\x00'
tRp214
sg14
F8.5624278333333326
ssa(dp215
g3
(dp216
g5
F26.45144702
sg6
I3
sg7
I63
ssg8
(dp217
g10
F47.365146666666668
sg11
g12
(S'\x07\xde\x02\x0e\x17)\x16\x00\x00\x00'
tRp218
sg14
F8.5649029999999993
ssa(dp219
g3
(dp220
g5
F24.12960021
sg6
I1
sg7
I61
ssg8
(dp221
g10
F47.3701255
sg11
g12
(S'\x07\xde\x02\x0e\x17)\x13\x00\x00\x00'
tRp222
sg14
F8.5188509999999997
ssa(dp223
g3
(dp224
g5
F14.272297050000001
sg6
I2
sg7
I66
ssg8
(dp225
g10
F47.389068333333334
sg11
g12
(S'\x07\xde\x02\x0e\x17)\x00\x00\x00\x00'
tRp226
sg14
F8.5152640000000002
ssa(dp227
g3
(dp228
g5
F26.45144702
sg6
I3
sg7
I63
ssg8
(dp229
g10
F47.364186833333335
sg11
g12
(S'\x07\xde\x02\x0e\x17(4\x00\x00\x00'
tRp230
sg14
F8.5664470000000001
ssa(dp231
g3
(dp232
g5
F24.173034220000002
sg6
I1
sg7
I61
ssg8
(dp233
g10
F47.370592166666668
sg11
g12
(S'\x07\xde\x02\x0e\x17(2\x00\x00\x00'
tRp234
sg14
F8.5161488333333342
ssa(dp235
g3
(dp236
g5
F14.272297050000001
sg6
I2
sg7
I66
ssg8
(dp237
g10
F47.3896145
sg11
g12
(S'\x07\xde\x02\x0e\x17(\x1f\x00\x00\x00'
tRp238
sg14
F8.5128536666666665
ssa(dp239
g3
(dp240
g5
F24.173034220000002
sg6
I1
sg7
I61
ssg8
(dp241
g10
F47.370283166666667
sg11
g12
(S'\x07\xde\x02\x0e\x17(\x13\x00\x00\x00'
tRp242
sg14
F8.5138218333333331
ssa(dp243
g3
(dp244
g5
F14.15958049
sg6
I1
sg7
I67
ssg8
(dp245
g10
F47.390199166666669
sg11
g12
(S'\x07\xde\x02\x0e\x17(\x00\x00\x00\x00'
tRp246
sg14
F8.5106409999999997
ssa(dp247
g3
(dp248
g5
F24.173034220000002
sg6
I1
sg7
I61
ssg8
(dp249
g10
F47.369877500000001
sg11
g12
(S"\x07\xde\x02\x0e\x17'1\x00\x00\x00"
tRp250
sg14
F8.5103803333333339
ssa(dp251
g3
(dp252
g5
F14.15958049
sg6
I1
sg7
I67
ssg8
(dp253
g10
F47.390779833333333
sg11
g12
(S"\x07\xde\x02\x0e\x17' \x00\x00\x00"
tRp254
sg14
F8.5086335000000002
ssa(dp255
g3
(dp256
g5
F14.272297050000001
sg6
I2
sg7
I66
ssg8
(dp257
g10
F47.391610333333333
sg11
g12
(S'\x07\xde\x02\x0e\x17&;\x00\x00\x00'
tRp258
sg14
F8.5058308333333326
ssa(dp259
g3
(dp260
g5
F24.196285979999999
sg6
I2
sg7
I61
ssg8
(dp261
g10
F47.369371999999998
sg11
g12
(S'\x07\xde\x02\x0e\x17&2\x00\x00\x00'
tRp262
sg14
F8.5059719999999999
ssa(dp263
g3
(dp264
g5
F14.272297050000001
sg6
I2
sg7
I67
ssg8
(dp265
g10
F47.392211166666669
sg11
g12
(S'\x07\xde\x02\x0e\x17&\x00\x00\x00\x00'
tRp266
sg14
F8.5026183333333325
ssa(dp267
g3
(dp268
g5
F24.174130269999999
sg6
I2
sg7
I60
ssg8
(dp269
g10
F47.369575166666664
sg11
g12
(S'\x07\xde\x02\x0e\x17%\x14\x00\x00\x00'
tRp270
sg14
F8.5072644999999998
ssa(dp271
g3
(dp272
g5
F14.38176578
sg6
I2
sg7
I66
ssg8
(dp273
g10
F47.392063833333332
sg11
g12
(S'\x07\xde\x02\x0e\x17$\x1f\x00\x00\x00'
tRp274
sg14
F8.4977281666666666
ssa(dp275
g3
(dp276
g5
F24.174130269999999
sg6
I2
sg7
I61
ssg8
(dp277
g10
F47.370171333333332
sg11
g12
(S'\x07\xde\x02\x0e\x17$\x13\x00\x00\x00'
tRp278
sg14
F8.5123494999999991
ssa(dp279
g3
(dp280
g5
F14.38176578
sg6
I2
sg7
I65
ssg8
(dp281
g10
F47.392077499999999
sg11
g12
(S'\x07\xde\x02\x0e\x17#\x1f\x00\x00\x00'
tRp282
sg14
F8.4917400000000001
ssa(dp283
g3
(dp284
g5
F15.62205522
sg6
I3
sg7
I64
ssg8
(dp285
g10
F47.366921166666664
sg11
g12
(S'\x07\xde\x02\x0e\x17"4\x00\x00\x00'
tRp286
sg14
F8.5613596666666663
ssa(dp287
g3
(dp288
g5
F14.38176578
sg6
I2
sg7
I65
ssg8
(dp289
g10
F47.392101500000003
sg11
g12
(S'\x07\xde\x02\x0e\x17"\x1e\x00\x00\x00'
tRp290
sg14
F8.4903271666666669
ssa(dp291
g3
(dp292
g5
F24.107663120000002
sg6
I2
sg7
I62
ssg8
(dp293
g10
F47.370384166666668
sg11
g12
(S'\x07\xde\x02\x0e\x17!0\x00\x00\x00'
tRp294
sg14
F8.5211489999999994
ssa(dp295
g3
(dp296
g5
F14.16282831
sg6
I2
sg7
I66
ssg8
(dp297
g10
F47.392122833333332
sg11
g12
(S'\x07\xde\x02\x0e\x17 ;\x00\x00\x00'
tRp298
sg14
F8.4944171666666666
ssa(dp299
g3
(dp300
g5
F12.628817339999999
sg6
I3
sg7
I64
ssg8
(dp301
g10
F47.372698166666666
sg11
g12
(S'\x07\xde\x02\x0e\x17 0\x00\x00\x00'
tRp302
sg14
F8.5268973333333342
ssa(dp303
g3
(dp304
g5
F14.16282831
sg6
I2
sg7
I66
ssg8
(dp305
g10
F47.392107333333335
sg11
g12
(S'\x07\xde\x02\x0e\x17 \x1d\x00\x00\x00'
tRp306
sg14
F8.495766333333334
ssa(dp307
g3
(dp308
g5
F24.107663120000002
sg6
I2
sg7
I62
ssg8
(dp309
g10
F47.371795166666665
sg11
g12
(S'\x07\xde\x02\x0e\x17 \x12\x00\x00\x00'
tRp310
sg14
F8.5253283333333325
ssa(dp311
g3
(dp312
g5
F14.16282831
sg6
I2
sg7
I67
ssg8
(dp313
g10
F47.392094499999999
sg11
g12
(S'\x07\xde\x02\x0e\x17\x1f;\x00\x00\x00'
tRp314
sg14
F8.4995775000000009
ssa(dp315
g3
(dp316
g5
F14.16282831
sg6
I2
sg7
I66
ssg8
(dp317
g10
F47.391294166666668
sg11
g12
(S'\x07\xde\x02\x0e\x17\x1d;\x00\x00\x00'
tRp318
sg14
F8.5073895000000004
ssa(dp319
g3
(dp320
g5
F14.05335958
sg6
I2
sg7
I66
ssg8
(dp321
g10
F47.38798966666667
sg11
g12
(S'\x07\xde\x02\x0e\x17\x1b\x1d\x00\x00\x00'
tRp322
sg14
F8.517772166666667
ssa(dp323
g3
(dp324
g5
F14.16282831
sg6
I2
sg7
I66
ssg8
(dp325
g10
F47.388354166666666
sg11
g12
(S'\x07\xde\x02\x0e\x17\x1a\x1e\x00\x00\x00'
tRp326
sg14
F8.5201145
ssa(dp327
g3
(dp328
g5
F24.2184417
sg6
I2
sg7
I65
ssg8
(dp329
g10
F47.372868500000003
sg11
g12
(S'\x07\xde\x02\x0e\x17\x1a\x12\x00\x00\x00'
tRp330
sg14
F8.5335380000000001
ssa(dp331
g3
(dp332
g5
F13.98942023
sg6
I3
sg7
I64
ssg8
(dp333
g10
F47.368960333333334
sg11
g12
(S'\x07\xde\x02\x0e\x17\x190\x00\x00\x00'
tRp334
sg14
F8.5027903333333335
ssa(dp335
g3
(dp336
g5
F24.2184417
sg6
I2
sg7
I65
ssg8
(dp337
g10
F47.3720225
sg11
g12
(S'\x07\xde\x02\x0e\x17\x190\x00\x00\x00'
tRp338
sg14
F8.5347059999999999
ssa(dp339
g3
(dp340
g5
F14.272297050000001
sg6
I2
sg7
I66
ssg8
(dp341
g10
F47.389998333333331
sg11
g12
(S'\x07\xde\x02\x0e\x17\x18;\x00\x00\x00'
tRp342
sg14
F8.5234026666666658
ssa(dp343
g3
(dp344
g5
F24.240597409999999
sg6
I2
sg7
I65
ssg8
(dp345
g10
F47.370547833333333
sg11
g12
(S'\x07\xde\x02\x0e\x17\x180\x00\x00\x00'
tRp346
sg14
F8.5366851666666665
ssa(dp347
g3
(dp348
g5
F13.98942023
sg6
I3
sg7
I63
ssg8
(dp349
g10
F47.368395833333331
sg11
g12
(S'\x07\xde\x02\x0e\x17\x180\x00\x00\x00'
tRp350
sg14
F8.498191666666667
ssa(dp351
g3
(dp352
g5
F13.69786247
sg6
I3
sg7
I63
ssg8
(dp353
g10
F47.36813433333333
sg11
g12
(S'\x07\xde\x02\x0e\x17\x18\x12\x00\x00\x00'
tRp354
sg14
F8.4956733333333325
ssa(dp355
g3
(dp356
g5
F24.28490884
sg6
I2
sg7
I65
ssg8
(dp357
g10
F47.369692166666667
sg11
g12
(S'\x07\xde\x02\x0e\x17\x18\x12\x00\x00\x00'
tRp358
sg14
F8.5386956666666673
ssa(dp359
g3
(dp360
g5
F14.272297050000001
sg6
I2
sg7
I67
ssg8
(dp361
g10
F47.388726499999997
sg11
g12
(S'\x07\xde\x02\x0e\x17\x17;\x00\x00\x00'
tRp362
sg14
F8.5259453333333326
ssa(dp363
g3
(dp364
g5
F14.272297050000001
sg6
I2
sg7
I67
ssg8
(dp365
g10
F47.386862499999999
sg11
g12
(S'\x07\xde\x02\x0e\x17\x16;\x00\x00\x00'
tRp366
sg14
F8.5288403333333331
ssa(dp367
g3
(dp368
g5
F24.28490884
sg6
I2
sg7
I66
ssg8
(dp369
g10
F47.36854266666667
sg11
g12
(S'\x07\xde\x02\x0e\x17\x160\x00\x00\x00'
tRp370
sg14
F8.5396643333333326
ssa(dp371
g3
(dp372
g5
F14.49123451
sg6
I2
sg7
I66
ssg8
(dp373
g10
F47.384873166666665
sg11
g12
(S'\x07\xde\x02\x0e\x17\x15;\x00\x00\x00'
tRp374
sg14
F8.5313508333333328
ssa(dp375
g3
(dp376
g5
F24.26275313
sg6
I2
sg7
I66
ssg8
(dp377
g10
F47.366848166666664
sg11
g12
(S'\x07\xde\x02\x0e\x17\x150\x00\x00\x00'
tRp378
sg14
F8.5403915000000001
ssa(dp379
g3
(dp380
g5
F14.60070324
sg6
I2
sg7
I68
ssg8
(dp381
g10
F47.383643666666664
sg11
g12
(S'\x07\xde\x02\x0e\x17\x14;\x00\x00\x00'
tRp382
sg14
F8.5327341666666658
ssa(dp383
g3
(dp384
g5
F24.28490884
sg6
I2
sg7
I66
ssg8
(dp385
g10
F47.366673333333331
sg11
g12
(S'\x07\xde\x02\x0e\x17\x140\x00\x00\x00'
tRp386
sg14
F8.5418281666666669
ssa(dp387
g3
(dp388
g5
F14.60070324
sg6
I2
sg7
I68
ssg8
(dp389
g10
F47.382288833333334
sg11
g12
(S'\x07\xde\x02\x0e\x17\x14\x1d\x00\x00\x00'
tRp390
sg14
F8.534714833333334
ssa(dp391
g3
(dp392
g5
F24.307064560000001
sg6
I2
sg7
I65
ssg8
(dp393
g10
F47.367076166666664
sg11
g12
(S'\x07\xde\x02\x0e\x17\x14\x12\x00\x00\x00'
tRp394
sg14
F8.5445416666666674
ssa(dp395
g3
(dp396
g5
F14.81964071
sg6
I2
sg7
I69
ssg8
(dp397
g10
F47.38035716666667
sg11
g12
(S'\x07\xde\x02\x0e\x17\x13\x1d\x00\x00\x00'
tRp398
sg14
F8.5373184999999996
ssa(dp399
g3
(dp400
g5
F12.48303846
sg6
I3
sg7
I64
ssg8
(dp401
g10
F47.369789166666664
sg11
g12
(S'\x07\xde\x02\x0e\x17\x13\x12\x00\x00\x00'
tRp402
sg14
F8.5085704999999994
ssa(dp403
g3
(dp404
g5
F24.32922027
sg6
I2
sg7
I64
ssg8
(dp405
g10
F47.367774166666663
sg11
g12
(S'\x07\xde\x02\x0e\x17\x120\x00\x00\x00'
tRp406
sg14
F8.5456098333333337
ssa(dp407
g3
(dp408
g5
F14.995561479999999
sg6
I3
sg7
I63
ssg8
(dp409
g10
F47.374203000000001
sg11
g12
(S'\x07\xde\x02\x0e\x17\x12\x16\x00\x00\x00'
tRp410
sg14
F8.5240240000000007
ssa(dp411
g3
(dp412
g5
F15.148046900000001
sg6
I2
sg7
I70
ssg8
(dp413
g10
F47.378731666666667
sg11
g12
(S'\x07\xde\x02\x0e\x17\x11;\x00\x00\x00'
tRp414
sg14
F8.5399776666666671
ssa(dp415
g3
(dp416
g5
F24.417843130000001
sg6
I2
sg7
I63
ssg8
(dp417
g10
F47.369198500000003
sg11
g12
(S'\x07\xde\x02\x0e\x17\x110\x00\x00\x00'
tRp418
sg14
F8.5480381666666663
ssa(dp419
g3
(dp420
g5
F14.995561479999999
sg6
I3
sg7
I63
ssg8
(dp421
g10
F47.374954833333334
sg11
g12
(S'\x07\xde\x02\x0e\x17\x103\x00\x00\x00'
tRp422
sg14
F8.5194428333333327
ssa(dp423
g3
(dp424
g5
F14.995561479999999
sg6
I3
sg7
I63
ssg8
(dp425
g10
F47.375365166666668
sg11
g12
(S'\x07\xde\x02\x0e\x17\x10\x15\x00\x00\x00'
tRp426
sg14
F8.5180244999999992
ssa(dp427
g3
(dp428
g5
F24.462154559999998
sg6
I2
sg7
I63
ssg8
(dp429
g10
F47.372234166666665
sg11
g12
(S'\x07\xde\x02\x0e\x17\x10\x12\x00\x00\x00'
tRp430
sg14
F8.5505871666666664
ssa(dp431
g3
(dp432
g5
F15.0850665
sg6
I2
sg7
I64
ssg8
(dp433
g10
F47.376157999999997
sg11
g12
(S'\x07\xde\x02\x0e\x17\x0f\x15\x00\x00\x00'
tRp434
sg14
F8.5151048333333339
ssa(dp435
g3
(dp436
g5
F24.484310279999999
sg6
I2
sg7
I63
ssg8
(dp437
g10
F47.374236666666668
sg11
g12
(S'\x07\xde\x02\x0e\x17\x0f\x12\x00\x00\x00'
tRp438
sg14
F8.5497751666666666
ssa(dp439
g3
(dp440
g5
F15.78688174
sg6
I2
sg7
I64
ssg8
(dp441
g10
F47.37677433333333
sg11
g12
(S'\x07\xde\x02\x0e\x17\x0e3\x00\x00\x00'
tRp442
sg14
F8.5136246666666668
ssa(dp443
g3
(dp444
g5
F24.484310279999999
sg6
I2
sg7
I63
ssg8
(dp445
g10
F47.375441666666667
sg11
g12
(S'\x07\xde\x02\x0e\x17\x0e0\x00\x00\x00'
tRp446
sg14
F8.5492360000000005
ssa(dp447
g3
(dp448
g5
F15.78688174
sg6
I2
sg7
I64
ssg8
(dp449
g10
F47.378003333333332
sg11
g12
(S'\x07\xde\x02\x0e\x17\x0e\x15\x00\x00\x00'
tRp450
sg14
F8.5108505000000001
ssa(dp451
g3
(dp452
g5
F24.59508885
sg6
I2
sg7
I63
ssg8
(dp453
g10
F47.376804833333331
sg11
g12
(S'\x07\xde\x02\x0e\x17\x0e\x12\x00\x00\x00'
tRp454
sg14
F8.5486133333333338
ssa(dp455
g3
(dp456
g5
F17.009015349999999
sg6
I2
sg7
I69
ssg8
(dp457
g10
F47.375343166666667
sg11
g12
(S'\x07\xde\x02\x0e\x17\r;\x00\x00\x00'
tRp458
sg14
F8.5433421666666671
ssa(dp459
g3
(dp460
g5
F17.009015349999999
sg6
I2
sg7
I69
ssg8
(dp461
g10
F47.374025666666668
sg11
g12
(S'\x07\xde\x02\x0e\x17\r\x1d\x00\x00\x00'
tRp462
sg14
F8.5429285000000004
ssa(dp463
g3
(dp464
g5
F17.015058400000001
sg6
I2
sg7
I65
ssg8
(dp465
g10
F47.377836166666668
sg11
g12
(S'\x07\xde\x02\x0e\x17\r\x15\x00\x00\x00'
tRp466
sg14
F8.5079034999999994
ssa(dp467
g3
(dp468
g5
F24.61724457
sg6
I2
sg7
I62
ssg8
(dp469
g10
F47.378528500000002
sg11
g12
(S'\x07\xde\x02\x0e\x17\r\x12\x00\x00\x00'
tRp470
sg14
F8.5481073333333342
ssa(dp471
g3
(dp472
g5
F24.61724457
sg6
I2
sg7
I62
ssg8
(dp473
g10
F47.380335166666669
sg11
g12
(S'\x07\xde\x02\x0e\x17\x0c0\x00\x00\x00'
tRp474
sg14
F8.5481510000000007
ssa(dp475
g3
(dp476
g5
F16.790077889999999
sg6
I2
sg7
I69
ssg8
(dp477
g10
F47.372660666666668
sg11
g12
(S'\x07\xde\x02\x0e\x17\x0c\x1d\x00\x00\x00'
tRp478
sg14
F8.5427994999999992
ssa(dp479
g3
(dp480
g5
F18.418688880000001
sg6
I2
sg7
I63
ssg8
(dp481
g10
F47.377449499999997
sg11
g12
(S'\x07\xde\x02\x0e\x17\x0c\x15\x00\x00\x00'
tRp482
sg14
F8.5030198333333331
ssa(dp483
g3
(dp484
g5
F24.57293314
sg6
I2
sg7
I62
ssg8
(dp485
g10
F47.38170483333333
sg11
g12
(S'\x07\xde\x02\x0e\x17\x0c\x12\x00\x00\x00'
tRp486
sg14
F8.5481363333333338
ssa(dp487
g3
(dp488
g5
F18.330961970000001
sg6
I2
sg7
I64
ssg8
(dp489
g10
F47.377456500000001
sg11
g12
(S'\x07\xde\x02\x0e\x17\x0b3\x00\x00\x00'
tRp490
sg14
F8.499015833333333
ssa(dp491
g3
(dp492
g5
F24.57293314
sg6
I2
sg7
I62
ssg8
(dp493
g10
F47.383190166666665
sg11
g12
(S'\x07\xde\x02\x0e\x17\x0b0\x00\x00\x00'
tRp494
sg14
F8.5481723333333335
ssa(dp495
g3
(dp496
g5
F16.1332655
sg6
I2
sg7
I70
ssg8
(dp497
g10
F47.370327000000003
sg11
g12
(S'\x07\xde\x02\x0e\x17\x0b\x1d\x00\x00\x00'
tRp498
sg14
F8.5431843333333326
ssa(dp499
g3
(dp500
g5
F24.462154559999998
sg6
I2
sg7
I62
ssg8
(dp501
g10
F47.385225166666665
sg11
g12
(S'\x07\xde\x02\x0e\x17\x0b\x12\x00\x00\x00'
tRp502
sg14
F8.5484543333333338
ssa(dp503
g3
(dp504
g5
F18.243235070000001
sg6
I2
sg7
I63
ssg8
(dp505
g10
F47.379240666666668
sg11
g12
(S'\x07\xde\x02\x0e\x17\n3\x00\x00\x00'
tRp506
sg14
F8.4955195000000003
ssa(dp507
g3
(dp508
g5
F18.243235070000001
sg6
I2
sg7
I63
ssg8
(dp509
g10
F47.378582833333333
sg11
g12
(S'\x07\xde\x02\x0e\x17\n\x15\x00\x00\x00'
tRp510
sg14
F8.4941328333333335
ssa(dp511
g3
(dp512
g5
F24.506465989999999
sg6
I2
sg7
I62
ssg8
(dp513
g10
F47.38782883333333
sg11
g12
(S'\x07\xde\x02\x0e\x17\n\x14\x00\x00\x00'
tRp514
sg14
F8.5469714999999997
ssa(dp515
g3
(dp516
g5
F24.506465989999999
sg6
I2
sg7
I62
ssg8
(dp517
g10
F47.38927533333333
sg11
g12
(S'\x07\xde\x02\x0e\x17\t1\x00\x00\x00'
tRp518
sg14
F8.546145666666666
ssa(dp519
g3
(dp520
g5
F17.629146739999999
sg6
I2
sg7
I63
ssg8
(dp521
g10
F47.376391833333336
sg11
g12
(S'\x07\xde\x02\x0e\x17\t\x15\x00\x00\x00'
tRp522
sg14
F8.4895968333333336
ssa(dp523
g3
(dp524
g5
F24.550777419999999
sg6
I2
sg7
I62
ssg8
(dp525
g10
F47.390743999999998
sg11
g12
(S'\x07\xde\x02\x0e\x17\t\x13\x00\x00\x00'
tRp526
sg14
F8.5454541666666675
ssa(dp527
g3
(dp528
g5
F17.80460055
sg6
I2
sg7
I63
ssg8
(dp529
g10
F47.375712833333331
sg11
g12
(S'\x07\xde\x02\x0e\x17\x083\x00\x00\x00'
tRp530
sg14
F8.4879820000000006
ssa(dp531
g3
(dp532
g5
F24.550777419999999
sg6
I2
sg7
I62
ssg8
(dp533
g10
F47.392710166666667
sg11
g12
(S'\x07\xde\x02\x0e\x17\x082\x00\x00\x00'
tRp534
sg14
F8.5450628333333327
ssa(dp535
g3
(dp536
g5
F17.118484089999999
sg6
I2
sg7
I70
ssg8
(dp537
g10
F47.366221666666668
sg11
g12
(S'\x07\xde\x02\x0e\x17\x08\x1d\x00\x00\x00'
tRp538
sg14
F8.5466034999999998
ssa(dp539
g3
(dp540
g5
F17.80460055
sg6
I2
sg7
I63
ssg8
(dp541
g10
F47.375309000000001
sg11
g12
(S'\x07\xde\x02\x0e\x17\x08\x15\x00\x00\x00'
tRp542
sg14
F8.4855661666666666
ssa(dp543
g3
(dp544
g5
F17.190512210000001
sg6
I2
sg7
I63
ssg8
(dp545
g10
F47.374356499999998
sg11
g12
(S'\x07\xde\x02\x0e\x17\x073\x00\x00\x00'
tRp546
sg14
F8.4845675000000007
ssa(dp547
g3
(dp548
g5
F24.604263400000001
sg6
I3
sg7
I62
ssg8
(dp549
g10
F47.395531333333331
sg11
g12
(S'\x07\xde\x02\x0e\x17\x070\x00\x00\x00'
tRp550
sg14
F8.5452813333333335
ssa(dp551
g3
(dp552
g5
F18.103702680000001
sg6
I2
sg7
I67
ssg8
(dp553
g10
F47.36533
sg11
g12
(S'\x07\xde\x02\x0e\x17\x07\x1d\x00\x00\x00'
tRp554
sg14
F8.547822
ssa(dp555
g3
(dp556
g5
F17.994233940000001
sg6
I2
sg7
I67
ssg8
(dp557
g10
F47.363866666666667
sg11
g12
(S'\x07\xde\x02\x0e\x17\x06;\x00\x00\x00'
tRp558
sg14
F8.5489211666666662
ssa(dp559
g3
(dp560
g5
F24.672073269999999
sg6
I3
sg7
I63
ssg8
(dp561
g10
F47.396390833333335
sg11
g12
(S'\x07\xde\x02\x0e\x17\x061\x00\x00\x00'
tRp562
sg14
F8.5437296666666658
ssa(dp563
g3
(dp564
g5
F17.994233940000001
sg6
I2
sg7
I67
ssg8
(dp565
g10
F47.362814499999999
sg11
g12
(S'\x07\xde\x02\x0e\x17\x06\x1d\x00\x00\x00'
tRp566
sg14
F8.5500931666666666
ssa(dp567
g3
(dp568
g5
F17.446890280000002
sg6
I2
sg7
I68
ssg8
(dp569
g10
F47.36011933333333
sg11
g12
(S'\x07\xde\x02\x0e\x17\x05\x1d\x00\x00\x00'
tRp570
sg14
F8.5522376666666666
ssa(dp571
g3
(dp572
g5
F17.118484089999999
sg6
I2
sg7
I68
ssg8
(dp573
g10
F47.357965333333333
sg11
g12
(S'\x07\xde\x02\x0e\x17\x04\x1d\x00\x00\x00'
tRp574
sg14
F8.5541591666666665
ssa(dp575
g3
(dp576
g5
F17.775296480000002
sg6
I2
sg7
I69
ssg8
(dp577
g10
F47.355307333333336
sg11
g12
(S'\x07\xde\x02\x0e\x17\x03\x1d\x00\x00\x00'
tRp578
sg14
F8.5567080000000004
ssa(dp579
g3
(dp580
g5
F18.103702680000001
sg6
I2
sg7
I70
ssg8
(dp581
g10
F47.353180666666667
sg11
g12
(S'\x07\xde\x02\x0e\x17\x02\x1c\x00\x00\x00'
tRp582
sg14
F8.5587886666666666
ssa(dp583
g3
(dp584
g5
F18.213171410000001
sg6
I2
sg7
I69
ssg8
(dp585
g10
F47.350778333333331
sg11
g12
(S'\x07\xde\x02\x0e\x17\x01\x1c\x00\x00\x00'
tRp586
sg14
F8.5605143333333338
ssa(dp587
g3
(dp588
g5
F15.71155433
sg6
I3
sg7
I62
ssg8
(dp589
g10
F47.378016000000002
sg11
g12
(S'\x07\xde\x02\x0e\x17\x003\x00\x00\x00'
tRp590
sg14
F8.4929461666666661
ssa(dp591
g3
(dp592
g5
F24.8896953
sg6
I1
sg7
I61
ssg8
(dp593
g10
F47.406079833333337
sg11
g12
(S'\x07\xde\x02\x0e\x17\x000\x00\x00\x00'
tRp594
sg14
F8.5689425000000004
ssa(dp595
g3
(dp596
g5
F25.56292238
sg6
I1
sg7
I61
ssg8
(dp597
g10
F47.404776499999997
sg11
g12
(S'\x07\xde\x02\x0e\x17\x00\x12\x00\x00\x00'
tRp598
sg14
F8.5716311666666662
ssa.