(lp1
(dp2
S'pollutants'
p3
(dp4
S'ozone'
p5
F45.678591766700002
sS'temperature'
p6
I0
sS'humidity'
p7
I0
ssS'metadata'
p8
(dp9
S'latitude'
p10
F47.369717999999999
sS'timestamp'
p11
cdatetime
datetime
p12
(S'\x07\xdd\x06\x14\x11\x069\x00\x00\x00'
tRp13
sS'longitude'
p14
F8.5382374999999993
ssa(dp15
g3
(dp16
g5
F48.427248429199999
sg6
I0
sg7
I0
ssg8
(dp17
g10
F47.374488666700003
sg11
g12
(S'\x07\xdd\x06\x14\x11\x06+\x00\x00\x00'
tRp18
sg14
F8.4850018333299992
ssa(dp19
g3
(dp20
g5
F54.046255058699998
sg6
I0
sg7
I0
ssg8
(dp21
g10
F47.401991500000001
sg11
g12
(S'\x07\xdd\x06\x14\x11\x06$\x00\x00\x00'
tRp22
sg14
F8.6074830000000002
ssa(dp23
g3
(dp24
g5
F43.9109409617
sg6
I0
sg7
I0
ssg8
(dp25
g10
F47.378616166699999
sg11
g12
(S'\x07\xdd\x06\x14\x11\x06\x1e\x00\x00\x00'
tRp26
sg14
F8.5403886666699993
ssa(dp27
g3
(dp28
g5
F50.157272384199999
sg6
I0
sg7
I0
ssg8
(dp29
g10
F47.371702999999997
sg11
g12
(S'\x07\xdd\x06\x14\x11\x06\x1d\x00\x00\x00'
tRp30
sg14
F8.5387876666700002
ssa(dp31
g3
(dp32
g5
F54.809817449000001
sg6
I0
sg7
I0
ssg8
(dp33
g10
F47.3992981667
sg11
g12
(S'\x07\xdd\x06\x14\x11\x06\x06\x00\x00\x00'
tRp34
sg14
F8.6053505000000001
ssa(dp35
g3
(dp36
g5
F43.9109409617
sg6
I0
sg7
I0
ssg8
(dp37
g10
F47.377918000000001
sg11
g12
(S'\x07\xdd\x06\x14\x11\x06\x00\x00\x00\x00'
tRp38
sg14
F8.5417288333299997
ssa(dp39
g3
(dp40
g5
F54.809817449000001
sg6
I0
sg7
I0
ssg8
(dp41
g10
F47.397497999999999
sg11
g12
(S'\x07\xdd\x06\x14\x11\x05$\x00\x00\x00'
tRp42
sg14
F8.6042520000000007
ssa(dp43
g3
(dp44
g5
F57.077366366
sg6
I0
sg7
I0
ssg8
(dp45
g10
F47.395873666699998
sg11
g12
(S'\x07\xdd\x06\x14\x11\x04$\x00\x00\x00'
tRp46
sg14
F8.6017766666700002
ssa(dp47
g3
(dp48
g5
F43.575127959500001
sg6
I0
sg7
I0
ssg8
(dp49
g10
F47.376879333300003
sg11
g12
(S'\x07\xdd\x06\x14\x11\x04 \x00\x00\x00'
tRp50
sg14
F8.5406293333299992
ssa(dp51
g3
(dp52
g5
F46.9590608321
sg6
I0
sg7
I0
ssg8
(dp53
g10
F47.370473333299998
sg11
g12
(S'\x07\xdd\x06\x14\x11\x04\x1b\x00\x00\x00'
tRp54
sg14
F8.5371701666700002
ssa(dp55
g3
(dp56
g5
F57.688829165900003
sg6
I0
sg7
I0
ssg8
(dp57
g10
F47.396521499999999
sg11
g12
(S'\x07\xdd\x06\x14\x11\x04\x06\x00\x00\x00'
tRp58
sg14
F8.5969038333299999
ssa(dp59
g3
(dp60
g5
F43.575127959500001
sg6
I0
sg7
I0
ssg8
(dp61
g10
F47.377206166699999
sg11
g12
(S'\x07\xdd\x06\x14\x11\x04\x01\x00\x00\x00'
tRp62
sg14
F8.53932
ssa(dp63
g3
(dp64
g5
F43.8943315936
sg6
I0
sg7
I0
ssg8
(dp65
g10
F47.371957999999999
sg11
g12
(S'\x07\xdd\x06\x14\x11\x039\x00\x00\x00'
tRp66
sg14
F8.5350014999999999
ssa(dp67
g3
(dp68
g5
F46.439353517999997
sg6
I0
sg7
I0
ssg8
(dp69
g10
F47.368788666699999
sg11
g12
(S'\x07\xdd\x06\x14\x11\x03\x1d\x00\x00\x00'
tRp70
sg14
F8.5372246666699994
ssa(dp71
g3
(dp72
g5
F44.293166220499998
sg6
I0
sg7
I0
ssg8
(dp73
g10
F47.372795333299997
sg11
g12
(S'\x07\xdd\x06\x14\x11\x029\x00\x00\x00'
tRp74
sg14
F8.5335898333299998
ssa(dp75
g3
(dp76
g5
F43.718222598600001
sg6
I0
sg7
I0
ssg8
(dp77
g10
F47.367757333299998
sg11
g12
(S'\x07\xdd\x06\x14\x11\x02\x1d\x00\x00\x00'
tRp78
sg14
F8.5345899999999997
ssa(dp79
g3
(dp80
g5
F44.293166220499998
sg6
I0
sg7
I0
ssg8
(dp81
g10
F47.373465500000002
sg11
g12
(S'\x07\xdd\x06\x14\x11\x02\x1b\x00\x00\x00'
tRp82
sg14
F8.5311838333299992
ssa(dp83
g3
(dp84
g5
F42.8363393546
sg6
I0
sg7
I0
ssg8
(dp85
g10
F47.376543166700003
sg11
g12
(S'\x07\xdd\x06\x14\x11\x02\x03\x00\x00\x00'
tRp86
sg14
F8.5378136666700009
ssa(dp87
g3
(dp88
g5
F43.718222598600001
sg6
I0
sg7
I0
ssg8
(dp89
g10
F47.367300166699998
sg11
g12
(S'\x07\xdd\x06\x14\x11\x01;\x00\x00\x00'
tRp90
sg14
F8.5333594999999995
ssa(dp91
g3
(dp92
g5
F43.709453160400003
sg6
I0
sg7
I0
ssg8
(dp93
g10
F47.375869000000002
sg11
g12
(S'\x07\xdd\x06\x14\x11\x01\x01\x00\x00\x00'
tRp94
sg14
F8.5367119999999996
ssa(dp95
g3
(dp96
g5
F44.746839766800001
sg6
I0
sg7
I0
ssg8
(dp97
g10
F47.365655500000003
sg11
g12
(S'\x07\xdd\x06\x14\x11\x00;\x00\x00\x00'
tRp98
sg14
F8.5318706666700006
ssa(dp99
g3
(dp100
g5
F41.398107597699997
sg6
I0
sg7
I0
ssg8
(dp101
g10
F47.364315666700001
sg11
g12
(S'\x07\xdd\x06\x14\x10;\x1d\x00\x00\x00'
tRp102
sg14
F8.5312841666699999
ssa(dp103
g3
(dp104
g5
F53.143863142699999
sg6
I0
sg7
I0
ssg8
(dp105
g10
F47.397769166700002
sg11
g12
(S'\x07\xdd\x06\x14\x10:$\x00\x00\x00'
tRp106
sg14
F8.5961798333299999
ssa(dp107
g3
(dp108
g5
F52.634821549199998
sg6
I0
sg7
I0
ssg8
(dp109
g10
F47.396360166699999
sg11
g12
(S'\x07\xdd\x06\x14\x108$\x00\x00\x00'
tRp110
sg14
F8.5986185000000006
ssa(dp111
g3
(dp112
g5
F52.634821549199998
sg6
I0
sg7
I0
ssg8
(dp113
g10
F47.395793500000003
sg11
g12
(S'\x07\xdd\x06\x14\x108\x06\x00\x00\x00'
tRp114
sg14
F8.6031273333300007
ssa(dp115
g3
(dp116
g5
F47.936172957399997
sg6
I0
sg7
I0
ssg8
(dp117
g10
F47.374339999999997
sg11
g12
(S'\x07\xdd\x06\x14\x106/\x00\x00\x00'
tRp118
sg14
F8.5242276666700008
ssa(dp119
g3
(dp120
g5
F55.712209365
sg6
I0
sg7
I0
ssg8
(dp121
g10
F47.400466000000002
sg11
g12
(S'\x07\xdd\x06\x14\x106$\x00\x00\x00'
tRp122
sg14
F8.6060716666699992
ssa(dp123
g3
(dp124
g5
F48.032105995599998
sg6
I0
sg7
I0
ssg8
(dp125
g10
F47.374110833300001
sg11
g12
(S'\x07\xdd\x06\x14\x106\x0c\x00\x00\x00'
tRp126
sg14
F8.5257124999999991
ssa(dp127
g3
(dp128
g5
F48.607704224899997
sg6
I0
sg7
I0
ssg8
(dp129
g10
F47.373419499999997
sg11
g12
(S'\x07\xdd\x06\x14\x105\x0c\x00\x00\x00'
tRp130
sg14
F8.528715
ssa(dp131
g3
(dp132
g5
F51.723966513000001
sg6
I0
sg7
I0
ssg8
(dp133
g10
F47.403903166699997
sg11
g12
(S'\x07\xdd\x06\x14\x105\x06\x00\x00\x00'
tRp134
sg14
F8.6063033333300005
ssa(dp135
g3
(dp136
g5
F48.607704224899997
sg6
I0
sg7
I0
ssg8
(dp137
g10
F47.373683
sg11
g12
(S'\x07\xdd\x06\x14\x104*\x00\x00\x00'
tRp138
sg14
F8.5299746666700003
ssa(dp139
g3
(dp140
g5
F58.095449553100003
sg6
I0
sg7
I0
ssg8
(dp141
g10
F47.404850500000002
sg11
g12
(S'\x07\xdd\x06\x14\x104$\x00\x00\x00'
tRp142
sg14
F8.6042280000000009
ssa(dp143
g3
(dp144
g5
F44.069164657899996
sg6
I0
sg7
I0
ssg8
(dp145
g10
F47.338921666700003
sg11
g12
(S'\x07\xdd\x06\x14\x104\x0e\x00\x00\x00'
tRp146
sg14
F8.53002966667
ssa(dp147
g3
(dp148
g5
F45.0950090471
sg6
I0
sg7
I0
ssg8
(dp149
g10
F47.340936166699997
sg11
g12
(S'\x07\xdd\x06\x14\x103,\x00\x00\x00'
tRp150
sg14
F8.5302206666699991
ssa(dp151
g3
(dp152
g5
F60.5011598464
sg6
I0
sg7
I0
ssg8
(dp153
g10
F47.407184833300001
sg11
g12
(S'\x07\xdd\x06\x14\x103$\x00\x00\x00'
tRp154
sg14
F8.5992971666700004
ssa(dp155
g3
(dp156
g5
F60.5011598464
sg6
I0
sg7
I0
ssg8
(dp157
g10
F47.409321833299998
sg11
g12
(S'\x07\xdd\x06\x14\x103\x06\x00\x00\x00'
tRp158
sg14
F8.5980343333300002
ssa(dp159
g3
(dp160
g5
F47.882208896900003
sg6
I0
sg7
I0
ssg8
(dp161
g10
F47.343336333300002
sg11
g12
(S'\x07\xdd\x06\x14\x102+\x00\x00\x00'
tRp162
sg14
F8.5303846666700007
ssa(dp163
g3
(dp164
g5
F47.124122278100003
sg6
I0
sg7
I0
ssg8
(dp165
g10
F47.3744013333
sg11
g12
(S'\x07\xdd\x06\x14\x102+\x00\x00\x00'
tRp166
sg14
F8.5323168333300003
ssa(dp167
g3
(dp168
g5
F46.732638221800002
sg6
I0
sg7
I0
ssg8
(dp169
g10
F47.375599999999999
sg11
g12
(S'\x07\xdd\x06\x14\x102\x0c\x00\x00\x00'
tRp170
sg14
F8.5334634999999999
ssa(dp171
g3
(dp172
g5
F61.567123894600002
sg6
I0
sg7
I0
ssg8
(dp173
g10
F47.412257500000003
sg11
g12
(S'\x07\xdd\x06\x14\x102\x06\x00\x00\x00'
tRp174
sg14
F8.5939856666699992
ssa(dp175
g3
(dp176
g5
F61.431043377800002
sg6
I0
sg7
I0
ssg8
(dp177
g10
F47.412602499999998
sg11
g12
(S'\x07\xdd\x06\x14\x101$\x00\x00\x00'
tRp178
sg14
F8.5924805000000006
ssa(dp179
g3
(dp180
g5
F46.895075616699998
sg6
I0
sg7
I0
ssg8
(dp181
g10
F47.344858000000002
sg11
g12
(S'\x07\xdd\x06\x14\x101\r\x00\x00\x00'
tRp182
sg14
F8.53317183333
ssa(dp183
g3
(dp184
g5
F47.515606334499999
sg6
I0
sg7
I0
ssg8
(dp185
g10
F47.376307666700001
sg11
g12
(S'\x07\xdd\x06\x14\x100*\x00\x00\x00'
tRp186
sg14
F8.5353781666700002
ssa(dp187
g3
(dp188
g5
F55.148659519100001
sg6
I0
sg7
I0
ssg8
(dp189
g10
F47.413442833300003
sg11
g12
(S'\x07\xdd\x06\x14\x100$\x00\x00\x00'
tRp190
sg14
F8.5853756666700001
ssa(dp191
g3
(dp192
g5
F46.7982978442
sg6
I0
sg7
I0
ssg8
(dp193
g10
F47.347050500000002
sg11
g12
(S'\x07\xdd\x06\x14\x100\r\x00\x00\x00'
tRp194
sg14
F8.5328199999999992
ssa(dp195
g3
(dp196
g5
F53.991975126299998
sg6
I0
sg7
I0
ssg8
(dp197
g10
F47.413486833299999
sg11
g12
(S'\x07\xdd\x06\x14\x10/$\x00\x00\x00'
tRp198
sg14
F8.5816863333299995
ssa(dp199
g3
(dp200
g5
F46.353120090399997
sg6
I0
sg7
I0
ssg8
(dp201
g10
F47.351355333299999
sg11
g12
(S'\x07\xdd\x06\x14\x10/\r\x00\x00\x00'
tRp202
sg14
F8.5319303333299992
ssa(dp203
g3
(dp204
g5
F53.991975126299998
sg6
I0
sg7
I0
ssg8
(dp205
g10
F47.415918166700003
sg11
g12
(S'\x07\xdd\x06\x14\x10/\x06\x00\x00\x00'
tRp206
sg14
F8.5812594999999998
ssa(dp207
g3
(dp208
g5
F51.497139933
sg6
I0
sg7
I0
ssg8
(dp209
g10
F47.3682451667
sg11
g12
(S'\x07\xdd\x06\x14\x10.;\x00\x00\x00'
tRp210
sg14
F8.5357719999999997
ssa(dp211
g3
(dp212
g5
F51.973447460499997
sg6
I0
sg7
I0
ssg8
(dp213
g10
F47.416467500000003
sg11
g12
(S'\x07\xdd\x06\x14\x10.#\x00\x00\x00'
tRp214
sg14
F8.5789369999999998
ssa(dp215
g3
(dp216
g5
F44.282075757500003
sg6
I0
sg7
I0
ssg8
(dp217
g10
F47.354075999999999
sg11
g12
(S'\x07\xdd\x06\x14\x10.\r\x00\x00\x00'
tRp218
sg14
F8.5323461666699991
ssa(dp219
g3
(dp220
g5
F51.973447460499997
sg6
I0
sg7
I0
ssg8
(dp221
g10
F47.416662833300002
sg11
g12
(S'\x07\xdd\x06\x14\x10.\x06\x00\x00\x00'
tRp222
sg14
F8.5776318333300008
ssa(dp223
g3
(dp224
g5
F43.643342458600003
sg6
I0
sg7
I0
ssg8
(dp225
g10
F47.3560591667
sg11
g12
(S'\x07\xdd\x06\x14\x10-+\x00\x00\x00'
tRp226
sg14
F8.5321885000000002
ssa(dp227
g3
(dp228
g5
F52.631169958400001
sg6
I0
sg7
I0
ssg8
(dp229
g10
F47.4167988333
sg11
g12
(S'\x07\xdd\x06\x14\x10-#\x00\x00\x00'
tRp230
sg14
F8.5716856666699996
ssa(dp231
g3
(dp232
g5
F52.631169958400001
sg6
I0
sg7
I0
ssg8
(dp233
g10
F47.417096000000001
sg11
g12
(S'\x07\xdd\x06\x14\x10-\x05\x00\x00\x00'
tRp234
sg14
F8.5687971666700005
ssa(dp235
g3
(dp236
g5
F45.869231227599997
sg6
I0
sg7
I0
ssg8
(dp237
g10
F47.359907
sg11
g12
(S'\x07\xdd\x06\x14\x10,+\x00\x00\x00'
tRp238
sg14
F8.5320711666700007
ssa(dp239
g3
(dp240
g5
F48.511771186700003
sg6
I0
sg7
I0
ssg8
(dp241
g10
F47.3769335
sg11
g12
(S'\x07\xdd\x06\x14\x10,\x0c\x00\x00\x00'
tRp242
sg14
F8.5425044999999997
ssa(dp243
g3
(dp244
g5
F51.633246168500001
sg6
I0
sg7
I0
ssg8
(dp245
g10
F47.416859666699999
sg11
g12
(S'\x07\xdd\x06\x14\x10,\x05\x00\x00\x00'
tRp246
sg14
F8.5649436666700005
ssa(dp247
g3
(dp248
g5
F47.243475597900002
sg6
I0
sg7
I0
ssg8
(dp249
g10
F47.362113000000001
sg11
g12
(S'\x07\xdd\x06\x14\x10++\x00\x00\x00'
tRp250
sg14
F8.5313913333299993
ssa(dp251
g3
(dp252
g5
F54.264136159899998
sg6
I0
sg7
I0
ssg8
(dp253
g10
F47.418238500000001
sg11
g12
(S'\x07\xdd\x06\x14\x10+#\x00\x00\x00'
tRp254
sg14
F8.56158783333
ssa(dp255
g3
(dp256
g5
F50.339945618800002
sg6
I0
sg7
I0
ssg8
(dp257
g10
F47.372932833299998
sg11
g12
(S'\x07\xdd\x06\x14\x10+\x1d\x00\x00\x00'
tRp258
sg14
F8.53823616667
ssa(dp259
g3
(dp260
g5
F47.519882023800001
sg6
I0
sg7
I0
ssg8
(dp261
g10
F47.3747868333
sg11
g12
(S'\x07\xdd\x06\x14\x10+\x1a\x00\x00\x00'
tRp262
sg14
F8.5201631666700006
ssa(dp263
g3
(dp264
g5
F50.339945618800002
sg6
I0
sg7
I0
ssg8
(dp265
g10
F47.3745393333
sg11
g12
(S'\x07\xdd\x06\x14\x10*;\x00\x00\x00'
tRp266
sg14
F8.5384764999999998
ssa(dp267
g3
(dp268
g5
F47.519882023800001
sg6
I0
sg7
I0
ssg8
(dp269
g10
F47.375317333300003
sg11
g12
(S'\x07\xdd\x06\x14\x10*8\x00\x00\x00'
tRp270
sg14
F8.5181348333300004
ssa(dp271
g3
(dp272
g5
F47.648373842799998
sg6
I0
sg7
I0
ssg8
(dp273
g10
F47.376770333300001
sg11
g12
(S'\x07\xdd\x06\x14\x10**\x00\x00\x00'
tRp274
sg14
F8.5438386666700001
ssa(dp275
g3
(dp276
g5
F49.2971972968
sg6
I0
sg7
I0
ssg8
(dp277
g10
F47.420101333300003
sg11
g12
(S'\x07\xdd\x06\x14\x10*#\x00\x00\x00'
tRp278
sg14
F8.5571179999999991
ssa(dp279
g3
(dp280
g5
F49.490094081800002
sg6
I0
sg7
I0
ssg8
(dp281
g10
F47.376763166700002
sg11
g12
(S'\x07\xdd\x06\x14\x10)\x1a\x00\x00\x00'
tRp282
sg14
F8.5138653333299992
ssa(dp283
g3
(dp284
g5
F48.427248429199999
sg6
I0
sg7
I0
ssg8
(dp285
g10
F47.375550333299998
sg11
g12
(S'\x07\xdd\x06\x14\x10)\r\x00\x00\x00'
tRp286
sg14
F8.5451716666700008
ssa(dp287
g3
(dp288
g5
F50.091000311499997
sg6
I0
sg7
I0
ssg8
(dp289
g10
F47.422881166700002
sg11
g12
(S'\x07\xdd\x06\x14\x10)\x05\x00\x00\x00'
tRp290
sg14
F8.5585653333299998
ssa(dp291
g3
(dp292
g5
F46.199887423699998
sg6
I0
sg7
I0
ssg8
(dp293
g10
F47.391800500000002
sg11
g12
(S'\x07\xdd\x06\x14\x10)\x00\x00\x00\x00'
tRp294
sg14
F8.5177823333300005
ssa(dp295
g3
(dp296
g5
F48.427248429199999
sg6
I0
sg7
I0
ssg8
(dp297
g10
F47.373541333299997
sg11
g12
(S'\x07\xdd\x06\x14\x10(*\x00\x00\x00'
tRp298
sg14
F8.5467853333299999
ssa(dp299
g3
(dp300
g5
F47.8452029185
sg6
I0
sg7
I0
ssg8
(dp301
g10
F47.425225333299998
sg11
g12
(S'\x07\xdd\x06\x14\x10(#\x00\x00\x00'
tRp302
sg14
F8.5604608333299996
ssa(dp303
g3
(dp304
g5
F46.213545768000003
sg6
I0
sg7
I0
ssg8
(dp305
g10
F47.377772333300001
sg11
g12
(S'\x07\xdd\x06\x14\x10(\x1a\x00\x00\x00'
tRp306
sg14
F8.5113461666700001
ssa(dp307
g3
(dp308
g5
F47.433236172699999
sg6
I0
sg7
I0
ssg8
(dp309
g10
F47.392710333300002
sg11
g12
(S'\x07\xdd\x06\x14\x10(\x00\x00\x00\x00'
tRp310
sg14
F8.5156191666699996
ssa(dp311
g3
(dp312
g5
F46.213545768000003
sg6
I0
sg7
I0
ssg8
(dp313
g10
F47.378170166700002
sg11
g12
(S"\x07\xdd\x06\x14\x10'8\x00\x00\x00"
tRp314
sg14
F8.5101501666699999
ssa(dp315
g3
(dp316
g5
F49.367582797399997
sg6
I0
sg7
I0
ssg8
(dp317
g10
F47.3723073333
sg11
g12
(S"\x07\xdd\x06\x14\x10'*\x00\x00\x00"
tRp318
sg14
F8.5475943333300002
ssa(dp319
g3
(dp320
g5
F46.611003673399999
sg6
I0
sg7
I0
ssg8
(dp321
g10
F47.393539666700001
sg11
g12
(S"\x07\xdd\x06\x14\x10'\x1e\x00\x00\x00"
tRp322
sg14
F8.5122394999999997
ssa(dp323
g3
(dp324
g5
F49.085482486899998
sg6
I0
sg7
I0
ssg8
(dp325
g10
F47.370787
sg11
g12
(S"\x07\xdd\x06\x14\x10'\x0e\x00\x00\x00"
tRp326
sg14
F8.5486611666699996
ssa(dp327
g3
(dp328
g5
F52.889342345999999
sg6
I0
sg7
I0
ssg8
(dp329
g10
F47.430876333299999
sg11
g12
(S"\x07\xdd\x06\x14\x10'\x05\x00\x00\x00"
tRp330
sg14
F8.5591526666700002
ssa(dp331
g3
(dp332
g5
F51.738705669700003
sg6
I0
sg7
I0
ssg8
(dp333
g10
F47.3778136667
sg11
g12
(S'\x07\xdd\x06\x14\x10&8\x00\x00\x00'
tRp334
sg14
F8.5077356666699995
ssa(dp335
g3
(dp336
g5
F47.844352422299998
sg6
I0
sg7
I0
ssg8
(dp337
g10
F47.393794
sg11
g12
(S'\x07\xdd\x06\x14\x10&\x1e\x00\x00\x00'
tRp338
sg14
F8.5091096666699997
ssa(dp339
g3
(dp340
g5
F48.427248429199999
sg6
I0
sg7
I0
ssg8
(dp341
g10
F47.370281166700003
sg11
g12
(S'\x07\xdd\x06\x14\x10&\x0c\x00\x00\x00'
tRp342
sg14
F8.5501339999999999
ssa(dp343
g3
(dp344
g5
F51.639876616199999
sg6
I0
sg7
I0
ssg8
(dp345
g10
F47.432927166699997
sg11
g12
(S'\x07\xdd\x06\x14\x10&\x05\x00\x00\x00'
tRp346
sg14
F8.5560353333299997
ssa(dp347
g3
(dp348
g5
F54.454414291600003
sg6
I0
sg7
I0
ssg8
(dp349
g10
F47.379221000000001
sg11
g12
(S'\x07\xdd\x06\x14\x10%:\x00\x00\x00'
tRp350
sg14
F8.5445395000000008
ssa(dp351
g3
(dp352
g5
F47.8411122507
sg6
I0
sg7
I0
ssg8
(dp353
g10
F47.377411000000002
sg11
g12
(S'\x07\xdd\x06\x14\x10%8\x00\x00\x00'
tRp354
sg14
F8.5024756666699997
ssa(dp355
g3
(dp356
g5
F48.427248429199999
sg6
I0
sg7
I0
ssg8
(dp357
g10
F47.369609333299998
sg11
g12
(S'\x07\xdd\x06\x14\x10%+\x00\x00\x00'
tRp358
sg14
F8.5535864999999998
ssa(dp359
g3
(dp360
g5
F48.354244512100003
sg6
I0
sg7
I0
ssg8
(dp361
g10
F47.434970166699998
sg11
g12
(S'\x07\xdd\x06\x14\x10%#\x00\x00\x00'
tRp362
sg14
F8.5574543333299999
ssa(dp363
g3
(dp364
g5
F48.255468671999999
sg6
I0
sg7
I0
ssg8
(dp365
g10
F47.3939298333
sg11
g12
(S'\x07\xdd\x06\x14\x10%\x1e\x00\x00\x00'
tRp366
sg14
F8.5057329999999993
ssa(dp367
g3
(dp368
g5
F52.873719137800002
sg6
I0
sg7
I0
ssg8
(dp369
g10
F47.377454999999998
sg11
g12
(S'\x07\xdd\x06\x14\x10%\x1a\x00\x00\x00'
tRp370
sg14
F8.4989586666699992
ssa(dp371
g3
(dp372
g5
F47.769014371499999
sg6
I0
sg7
I0
ssg8
(dp373
g10
F47.369254499999997
sg11
g12
(S'\x07\xdd\x06\x14\x10%\x0c\x00\x00\x00'
tRp374
sg14
F8.5555958333300008
ssa(dp375
g3
(dp376
g5
F48.255468671999999
sg6
I0
sg7
I0
ssg8
(dp377
g10
F47.394242499999997
sg11
g12
(S'\x07\xdd\x06\x14\x10%\x05\x00\x00\x00'
tRp378
sg14
F8.5041651666700009
ssa(dp379
g3
(dp380
g5
F58.440305818299997
sg6
I0
sg7
I0
ssg8
(dp381
g10
F47.378148166700001
sg11
g12
(S'\x07\xdd\x06\x14\x10$:\x00\x00\x00'
tRp382
sg14
F8.5458853333300002
ssa(dp383
g3
(dp384
g5
F49.811954530100003
sg6
I0
sg7
I0
ssg8
(dp385
g10
F47.436739666699999
sg11
g12
(S'\x07\xdd\x06\x14\x10$#\x00\x00\x00'
tRp386
sg14
F8.5601991666699995
ssa(dp387
g3
(dp388
g5
F48.926116955700003
sg6
I0
sg7
I0
ssg8
(dp389
g10
F47.394507666700001
sg11
g12
(S'\x07\xdd\x06\x14\x10$\x1e\x00\x00\x00'
tRp390
sg14
F8.5014289999999999
ssa(dp391
g3
(dp392
g5
F52.5096582141
sg6
I0
sg7
I0
ssg8
(dp393
g10
F47.378723333300002
sg11
g12
(S'\x07\xdd\x06\x14\x10$\x1a\x00\x00\x00'
tRp394
sg14
F8.4963033333299993
ssa(dp395
g3
(dp396
g5
F46.734646566499997
sg6
I0
sg7
I0
ssg8
(dp397
g10
F47.368537333299997
sg11
g12
(S'\x07\xdd\x06\x14\x10$\x0c\x00\x00\x00'
tRp398
sg14
F8.5592456666699999
ssa(dp399
g3
(dp400
g5
F49.811954530100003
sg6
I0
sg7
I0
ssg8
(dp401
g10
F47.438070500000002
sg11
g12
(S'\x07\xdd\x06\x14\x10$\x05\x00\x00\x00'
tRp402
sg14
F8.5627131666699992
ssa(dp403
g3
(dp404
g5
F48.926116955700003
sg6
I0
sg7
I0
ssg8
(dp405
g10
F47.396275000000003
sg11
g12
(S'\x07\xdd\x06\x14\x10$\x05\x00\x00\x00'
tRp406
sg14
F8.4976248333300006
ssa(dp407
g3
(dp408
g5
F53.747239988499999
sg6
I0
sg7
I0
ssg8
(dp409
g10
F47.377261333299998
sg11
g12
(S'\x07\xdd\x06\x14\x10#:\x00\x00\x00'
tRp410
sg14
F8.5476253333300001
ssa(dp411
g3
(dp412
g5
F52.5096582141
sg6
I0
sg7
I0
ssg8
(dp413
g10
F47.378916833300003
sg11
g12
(S'\x07\xdd\x06\x14\x10#8\x00\x00\x00'
tRp414
sg14
F8.4947226666700004
ssa(dp415
g3
(dp416
g5
F46.734646566499997
sg6
I0
sg7
I0
ssg8
(dp417
g10
F47.367979833299998
sg11
g12
(S'\x07\xdd\x06\x14\x10#+\x00\x00\x00'
tRp418
sg14
F8.5603905000000005
ssa(dp419
g3
(dp420
g5
F50.159028343999999
sg6
I0
sg7
I0
ssg8
(dp421
g10
F47.440821999999997
sg11
g12
(S'\x07\xdd\x06\x14\x10#\x05\x00\x00\x00'
tRp422
sg14
F8.5669599999999999
ssa(dp423
g3
(dp424
g5
F48.087274258500003
sg6
I0
sg7
I0
ssg8
(dp425
g10
F47.397590166699999
sg11
g12
(S'\x07\xdd\x06\x14\x10#\x00\x00\x00\x00'
tRp426
sg14
F8.4945959999999996
ssa(dp427
g3
(dp428
g5
F50.346708020000001
sg6
I0
sg7
I0
ssg8
(dp429
g10
F47.3774153333
sg11
g12
(S'\x07\xdd\x06\x14\x10"8\x00\x00\x00'
tRp430
sg14
F8.4916986666700005
ssa(dp431
g3
(dp432
g5
F47.023715987000003
sg6
I0
sg7
I0
ssg8
(dp433
g10
F47.375980333299999
sg11
g12
(S'\x07\xdd\x06\x14\x10"+\x00\x00\x00'
tRp434
sg14
F8.5393185000000003
ssa(dp435
g3
(dp436
g5
F45.700278761500002
sg6
I0
sg7
I0
ssg8
(dp437
g10
F47.365813166700001
sg11
g12
(S'\x07\xdd\x06\x14\x10"*\x00\x00\x00'
tRp438
sg14
F8.5630501666699992
ssa(dp439
g3
(dp440
g5
F46.988376241300003
sg6
I0
sg7
I0
ssg8
(dp441
g10
F47.4415898333
sg11
g12
(S'\x07\xdd\x06\x14\x10"#\x00\x00\x00'
tRp442
sg14
F8.5684799999999992
ssa(dp443
g3
(dp444
g5
F56.447360054999997
sg6
I0
sg7
I0
ssg8
(dp445
g10
F47.375273
sg11
g12
(S'\x07\xdd\x06\x14\x10"\x1d\x00\x00\x00'
tRp446
sg14
F8.5493494999999999
ssa(dp447
g3
(dp448
g5
F50.917774839700002
sg6
I0
sg7
I0
ssg8
(dp449
g10
F47.375791999999997
sg11
g12
(S'\x07\xdd\x06\x14\x10"\x1a\x00\x00\x00'
tRp450
sg14
F8.4881476666700006
ssa(dp451
g3
(dp452
g5
F46.988376241300003
sg6
I0
sg7
I0
ssg8
(dp453
g10
F47.443083000000001
sg11
g12
(S'\x07\xdd\x06\x14\x10"\x05\x00\x00\x00'
tRp454
sg14
F8.5697891666700006
ssa(dp455
g3
(dp456
g5
F44.8539778301
sg6
I0
sg7
I0
ssg8
(dp457
g10
F47.364437500000001
sg11
g12
(S'\x07\xdd\x06\x14\x10!+\x00\x00\x00'
tRp458
sg14
F8.5664591666700005
ssa(dp459
g3
(dp460
g5
F43.140650729699999
sg6
I0
sg7
I0
ssg8
(dp461
g10
F47.447240166699999
sg11
g12
(S'\x07\xdd\x06\x14\x10!$\x00\x00\x00'
tRp462
sg14
F8.5689196666700003
ssa(dp463
g3
(dp464
g5
F47.2484315612
sg6
I0
sg7
I0
ssg8
(dp465
g10
F47.394910000000003
sg11
g12
(S'\x07\xdd\x06\x14\x10!\x1e\x00\x00\x00'
tRp466
sg14
F8.4905811666699993
ssa(dp467
g3
(dp468
g5
F57.025957212100003
sg6
I0
sg7
I0
ssg8
(dp469
g10
F47.374950833299998
sg11
g12
(S'\x07\xdd\x06\x14\x10!\x1c\x00\x00\x00'
tRp470
sg14
F8.5524781666699994
ssa(dp471
g3
(dp472
g5
F43.140650729699999
sg6
I0
sg7
I0
ssg8
(dp473
g10
F47.449044166699998
sg11
g12
(S'\x07\xdd\x06\x14\x10!\x05\x00\x00\x00'
tRp474
sg14
F8.5644608333299992
ssa(dp475
g3
(dp476
g5
F47.2484315612
sg6
I0
sg7
I0
ssg8
(dp477
g10
F47.395464166700002
sg11
g12
(S'\x07\xdd\x06\x14\x10!\x04\x00\x00\x00'
tRp478
sg14
F8.4885380000000001
ssa(dp479
g3
(dp480
g5
F51.709511838399997
sg6
I0
sg7
I0
ssg8
(dp481
g10
F47.450545666700002
sg11
g12
(S'\x07\xdd\x06\x14\x10 #\x00\x00\x00'
tRp482
sg14
F8.5641119999999997
ssa(dp483
g3
(dp484
g5
F54.657009545500003
sg6
I0
sg7
I0
ssg8
(dp485
g10
F47.376486166699998
sg11
g12
(S'\x07\xdd\x06\x14\x10 \x1c\x00\x00\x00'
tRp486
sg14
F8.5531361666700008
ssa(dp487
g3
(dp488
g5
F46.4794830015
sg6
I0
sg7
I0
ssg8
(dp489
g10
F47.3965273333
sg11
g12
(S'\x07\xdd\x06\x14\x10 \x04\x00\x00\x00'
tRp490
sg14
F8.4850983333300007
ssa(dp491
g3
(dp492
g5
F53.861149024600003
sg6
I0
sg7
I0
ssg8
(dp493
g10
F47.452158833299997
sg11
g12
(S'\x07\xdd\x06\x14\x10\x1f\x05\x00\x00\x00'
tRp494
sg14
F8.5708938333300004
ssa(dp495
g3
(dp496
g5
F46.194220187100001
sg6
I0
sg7
I0
ssg8
(dp497
g10
F47.397446666699999
sg11
g12
(S'\x07\xdd\x06\x14\x10\x1f\x04\x00\x00\x00'
tRp498
sg14
F8.4824143333300004
ssa(dp499
g3
(dp500
g5
F51.115295977000002
sg6
I0
sg7
I0
ssg8
(dp501
g10
F47.376533999999999
sg11
g12
(S'\x07\xdd\x06\x14\x10\x1e:\x00\x00\x00'
tRp502
sg14
F8.5555625000000006
ssa(dp503
g3
(dp504
g5
F51.115295977000002
sg6
I0
sg7
I0
ssg8
(dp505
g10
F47.375436666699997
sg11
g12
(S'\x07\xdd\x06\x14\x10\x1e\x1c\x00\x00\x00'
tRp506
sg14
F8.5579900000000002
ssa(dp507
g3
(dp508
g5
F48.557391733099998
sg6
I0
sg7
I0
ssg8
(dp509
g10
F47.376401000000001
sg11
g12
(S'\x07\xdd\x06\x14\x10\x1d:\x00\x00\x00'
tRp510
sg14
F8.5593360000000001
ssa(dp511
g3
(dp512
g5
F45.7179586504
sg6
I0
sg7
I0
ssg8
(dp513
g10
F47.3756423333
sg11
g12
(S'\x07\xdd\x06\x14\x10\x1d\x1a\x00\x00\x00'
tRp514
sg14
F8.4868793333300001
ssa(dp515
g3
(dp516
g5
F52.634821549199998
sg6
I0
sg7
I0
ssg8
(dp517
g10
F47.452493333299998
sg11
g12
(S'\x07\xdd\x06\x14\x10\x1d\x05\x00\x00\x00'
tRp518
sg14
F8.5728045000000002
ssa(dp519
g3
(dp520
g5
F49.475613769399999
sg6
I0
sg7
I0
ssg8
(dp521
g10
F47.377987833299997
sg11
g12
(S'\x07\xdd\x06\x14\x10\x1c:\x00\x00\x00'
tRp522
sg14
F8.5594493333300008
ssa(dp523
g3
(dp524
g5
F44.011097994399996
sg6
I0
sg7
I0
ssg8
(dp525
g10
F47.381351666699999
sg11
g12
(S'\x07\xdd\x06\x14\x10\x1c+\x00\x00\x00'
tRp526
sg14
F8.5438271666700008
ssa(dp527
g3
(dp528
g5
F44.011097994399996
sg6
I0
sg7
I0
ssg8
(dp529
g10
F47.382962666700003
sg11
g12
(S'\x07\xdd\x06\x14\x10\x1c\r\x00\x00\x00'
tRp530
sg14
F8.5434734999999993
ssa(dp531
g3
(dp532
g5
F49.2788519044
sg6
I0
sg7
I0
ssg8
(dp533
g10
F47.379325833300001
sg11
g12
(S'\x07\xdd\x06\x14\x10\x1b:\x00\x00\x00'
tRp534
sg14
F8.5597128333299999
ssa(dp535
g3
(dp536
g5
F49.2788519044
sg6
I0
sg7
I0
ssg8
(dp537
g10
F47.379148499999999
sg11
g12
(S'\x07\xdd\x06\x14\x10\x1b\x1c\x00\x00\x00'
tRp538
sg14
F8.5617409999999996
ssa(dp539
g3
(dp540
g5
F43.991742439799999
sg6
I0
sg7
I0
ssg8
(dp541
g10
F47.3854036667
sg11
g12
(S'\x07\xdd\x06\x14\x10\x1b\r\x00\x00\x00'
tRp542
sg14
F8.542465
ssa(dp543
g3
(dp544
g5
F49.213264616099998
sg6
I0
sg7
I0
ssg8
(dp545
g10
F47.378752666700002
sg11
g12
(S'\x07\xdd\x06\x14\x10\x1a:\x00\x00\x00'
tRp546
sg14
F8.5643768333299999
ssa(dp547
g3
(dp548
g5
F44.278943779800002
sg6
I0
sg7
I0
ssg8
(dp549
g10
F47.387238000000004
sg11
g12
(S'\x07\xdd\x06\x14\x10\x1a\r\x00\x00\x00'
tRp550
sg14
F8.5411988333300002
ssa(dp551
g3
(dp552
g5
F52.623803608000003
sg6
I0
sg7
I0
ssg8
(dp553
g10
F47.378547833299997
sg11
g12
(S'\x07\xdd\x06\x14\x10\x19:\x00\x00\x00'
tRp554
sg14
F8.5676299999999994
ssa(dp555
g3
(dp556
g5
F44.002491902800003
sg6
I0
sg7
I0
ssg8
(dp557
g10
F47.388800166700001
sg11
g12
(S'\x07\xdd\x06\x14\x10\x19+\x00\x00\x00'
tRp558
sg14
F8.5404523333300002
ssa(dp559
g3
(dp560
g5
F51.801844396
sg6
I0
sg7
I0
ssg8
(dp561
g10
F47.452204000000002
sg11
g12
(S'\x07\xdd\x06\x14\x10\x19#\x00\x00\x00'
tRp562
sg14
F8.5694520000000001
ssa(dp563
g3
(dp564
g5
F44.002491902800003
sg6
I0
sg7
I0
ssg8
(dp565
g10
F47.390248666700003
sg11
g12
(S'\x07\xdd\x06\x14\x10\x19\r\x00\x00\x00'
tRp566
sg14
F8.5397545000000008
ssa(dp567
g3
(dp568
g5
F49.811954530100003
sg6
I0
sg7
I0
ssg8
(dp569
g10
F47.452238166699999
sg11
g12
(S'\x07\xdd\x06\x14\x10\x19\x05\x00\x00\x00'
tRp570
sg14
F8.5658469999999998
ssa(dp571
g3
(dp572
g5
F54.132311239099998
sg6
I0
sg7
I0
ssg8
(dp573
g10
F47.379312833299998
sg11
g12
(S'\x07\xdd\x06\x14\x10\x18:\x00\x00\x00'
tRp574
sg14
F8.5704418333299994
ssa(dp575
g3
(dp576
g5
F43.153389709199999
sg6
I0
sg7
I0
ssg8
(dp577
g10
F47.391671000000002
sg11
g12
(S'\x07\xdd\x06\x14\x10\x18+\x00\x00\x00'
tRp578
sg14
F8.5387708333300001
ssa(dp579
g3
(dp580
g5
F54.132311239099998
sg6
I0
sg7
I0
ssg8
(dp581
g10
F47.3810246667
sg11
g12
(S'\x07\xdd\x06\x14\x10\x18\x1c\x00\x00\x00'
tRp582
sg14
F8.571275
ssa(dp583
g3
(dp584
g5
F41.929102825400001
sg6
I0
sg7
I0
ssg8
(dp585
g10
F47.393599999999999
sg11
g12
(S'\x07\xdd\x06\x14\x10\x17+\x00\x00\x00'
tRp586
sg14
F8.5391426666699992
ssa(dp587
g3
(dp588
g5
F41.929102825400001
sg6
I0
sg7
I0
ssg8
(dp589
g10
F47.395868999999998
sg11
g12
(S'\x07\xdd\x06\x14\x10\x17\r\x00\x00\x00'
tRp590
sg14
F8.5401641666699994
ssa(dp591
g3
(dp592
g5
F42.230386979199999
sg6
I0
sg7
I0
ssg8
(dp593
g10
F47.397651000000003
sg11
g12
(S'\x07\xdd\x06\x14\x10\x16\r\x00\x00\x00'
tRp594
sg14
F8.5416923333299994
ssa.